target datalayout = "e-m:e-p270:32:32-p271:32:32-p272:64:64-i64:64-i128:128-f80:128-n8:16:32:64-S128"
target triple = "x86_64-pc-linux-gnu"

%struct.asn1_string_st = type { i32, i32, ptr, i64 }

; Function Attrs: nounwind uwtable
define i32 @ASN1_INTEGER_cmp(ptr noundef %0, ptr noundef %1) #0 {
  %3 = alloca i32, align 4
  %4 = alloca ptr, align 8
  %5 = alloca ptr, align 8
  %6 = alloca i32, align 4
  %7 = alloca i32, align 4
  %8 = alloca i32, align 4
  store ptr %0, ptr %4, align 8, !tbaa !3
  store ptr %1, ptr %5, align 8, !tbaa !3
  call void @llvm.lifetime.start.p0(i64 4, ptr %6) #4
  call void @llvm.lifetime.start.p0(i64 4, ptr %7) #4
  %9 = load ptr, ptr %4, align 8, !tbaa !3
  %10 = getelementptr inbounds nuw %struct.asn1_string_st, ptr %9, i32 0, i32 1
  %11 = load i32, ptr %10, align 4, !tbaa !8
  %12 = and i32 %11, 256
  store i32 %12, ptr %6, align 4, !tbaa !13
  %13 = load i32, ptr %6, align 4, !tbaa !13
  %14 = load ptr, ptr %5, align 8, !tbaa !3
  %15 = getelementptr inbounds nuw %struct.asn1_string_st, ptr %14, i32 0, i32 1
  %16 = load i32, ptr %15, align 4, !tbaa !8
  %17 = and i32 %16, 256
  %18 = icmp ne i32 %13, %17
  br i1 %18, label %19, label %24

19:                                               ; preds = %2
  %20 = load i32, ptr %6, align 4, !tbaa !13
  %21 = icmp ne i32 %20, 0
  br i1 %21, label %22, label %23

22:                                               ; preds = %19
  store i32 -1, ptr %3, align 4
  store i32 1, ptr %8, align 4
  br label %35

23:                                               ; preds = %19
  store i32 1, ptr %3, align 4
  store i32 1, ptr %8, align 4
  br label %35

24:                                               ; preds = %2
  %25 = load ptr, ptr %4, align 8, !tbaa !3
  %26 = load ptr, ptr %5, align 8, !tbaa !3
  %27 = call i32 @ASN1_STRING_cmp(ptr noundef %25, ptr noundef %26)
  store i32 %27, ptr %7, align 4, !tbaa !13
  %28 = load i32, ptr %6, align 4, !tbaa !13
  %29 = icmp ne i32 %28, 0
  br i1 %29, label %30, label %33

30:                                               ; preds = %24
  %31 = load i32, ptr %7, align 4, !tbaa !13
  %32 = sub nsw i32 0, %31
  store i32 %32, ptr %3, align 4
  store i32 1, ptr %8, align 4
  br label %35

33:                                               ; preds = %24
  %34 = load i32, ptr %7, align 4, !tbaa !13
  store i32 %34, ptr %3, align 4
  store i32 1, ptr %8, align 4
  br label %35

35:                                               ; preds = %33, %30, %23, %22
  call void @llvm.lifetime.end.p0(i64 4, ptr %7) #4
  call void @llvm.lifetime.end.p0(i64 4, ptr %6) #4
  %36 = load i32, ptr %3, align 4
  ret i32 %36
}