; Function Attrs: nounwind uwtable
define i32 @ASN1_INTEGER_cmp(ptr noundef %0, ptr noundef %1) local_unnamed_addr #0 {
  %3 = getelementptr inbounds nuw i8, ptr %0, i64 4
  %4 = load i32, ptr %3, align 4, !tbaa !3
  %5 = and i32 %4, 256
  %6 = getelementptr inbounds nuw i8, ptr %1, i64 4
  %7 = load i32, ptr %6, align 4, !tbaa !3
  %8 = and i32 %7, 256
  %.not = icmp eq i32 %5, %8
  br i1 %.not, label %10, label %9

9:                                                ; preds = %2
  %.not11 = icmp eq i32 %5, 0
  %. = select i1 %.not11, i32 1, i32 -1
  br label %13

10:                                               ; preds = %2
  %11 = tail call i32 @ASN1_STRING_cmp(ptr noundef nonnull %0, ptr noundef nonnull %1) #6
  %.not10 = icmp eq i32 %5, 0
  %12 = sub nsw i32 0, %11
  %spec.select = select i1 %.not10, i32 %11, i32 %12
  br label %13

13:                                               ; preds = %10, %9
  %.0 = phi i32 [ %., %9 ], [ %spec.select, %10 ]
  ret i32 %.0
}